target datalayout = "e-m:e-p270:32:32-p271:32:32-p272:64:64-i64:64-i128:128-f80:128-n8:16:32:64-S128"
target triple = "x86_64-pc-linux-gnu"

%struct.AResampleContext = type { ptr, i32, double, ptr, i64, i32, i32 }

; Function Attrs: nounwind uwtable
define internal ptr @resample_child_next(ptr noundef %0, ptr noundef %1) #1 {
  %3 = alloca ptr, align 8
  %4 = alloca ptr, align 8
  %5 = alloca ptr, align 8
  store ptr %0, ptr %3, align 8, !tbaa !43
  store ptr %1, ptr %4, align 8, !tbaa !43
  call void @llvm.lifetime.start.p0(i64 8, ptr %5) #10
  %6 = load ptr, ptr %3, align 8, !tbaa !43
  store ptr %6, ptr %5, align 8, !tbaa !22
  %7 = load ptr, ptr %4, align 8, !tbaa !43
  %8 = icmp ne ptr %7, null
  br i1 %8, label %9, label %10

9:                                                ; preds = %2
  br label %14

10:                                               ; preds = %2
  %11 = load ptr, ptr %5, align 8, !tbaa !22
  %12 = getelementptr inbounds nuw %struct.AResampleContext, ptr %11, i32 0, i32 3
  %13 = load ptr, ptr %12, align 8, !tbaa !29
  br label %14

14:                                               ; preds = %10, %9
  %15 = phi ptr [ null, %9 ], [ %13, %10 ]
  call void @llvm.lifetime.end.p0(i64 8, ptr %5) #10
  ret ptr %15
}