; Function Attrs: mustprogress nofree norecurse nosync nounwind willreturn memory(argmem: read) uwtable
define internal ptr @resample_child_next(ptr noundef readonly captures(none) %0, ptr noundef readnone captures(address_is_null) %1) #7 {
  %.not = icmp eq ptr %1, null
  br i1 %.not, label %3, label %6

3:                                                ; preds = %2
  %4 = getelementptr inbounds nuw i8, ptr %0, i64 24
  %5 = load ptr, ptr %4, align 8, !tbaa !25
  br label %6

6:                                                ; preds = %2, %3
  %7 = phi ptr [ %5, %3 ], [ null, %2 ]
  ret ptr %7
}